; Function Attrs: mustprogress nofree norecurse nosync nounwind willreturn memory(read, inaccessiblemem: none) uwtable
define dso_local noundef zeroext i1 @_ZNK4node10BaseObject33IsNotIndicativeOfMemoryLeakAtExitEv(ptr nocapture noundef nonnull readonly align 8 dereferenceable(32) %this) unnamed_addr #12 align 2 {
entry:
  %persistent_handle_.i = getelementptr inbounds i8, ptr %this, i64 8
  %0 = load ptr, ptr %persistent_handle_.i, align 8
  %cmp.i.i.i = icmp eq ptr %0, null
  br i1 %cmp.i.i.i, label %if.end.i, label %if.end.i.i

if.end.i.i:                                       ; preds = %entry
  %add.ptr.i.i = getelementptr inbounds i8, ptr %0, i64 11
  %1 = load i8, ptr %add.ptr.i.i, align 1
  %2 = and i8 %1, 3
  %cmp.i.i = icmp eq i8 %2, 2
  br i1 %cmp.i.i, label %_ZNK4node10BaseObject16IsWeakOrDetachedEv.exit, label %if.end.i

if.end.i:                                         ; preds = %if.end.i.i, %entry
  %pointer_data_.i.i = getelementptr inbounds i8, ptr %this, i64 24
  %3 = load ptr, ptr %pointer_data_.i.i, align 8
  %cmp.i2.not.i = icmp eq ptr %3, null
  br i1 %cmp.i2.not.i, label %_ZNK4node10BaseObject16IsWeakOrDetachedEv.exit, label %_ZN4node10BaseObject12pointer_dataEv.exit.i

_ZN4node10BaseObject12pointer_dataEv.exit.i:      ; preds = %if.end.i
  %wants_weak_jsobj.i = getelementptr inbounds i8, ptr %3, i64 8
  %4 = load i8, ptr %wants_weak_jsobj.i, align 8
  %5 = and i8 %4, 1
  %tobool.not.i = icmp eq i8 %5, 0
  br i1 %tobool.not.i, label %lor.rhs.i, label %_ZNK4node10BaseObject16IsWeakOrDetachedEv.exit

lor.rhs.i:                                        ; preds = %_ZN4node10BaseObject12pointer_dataEv.exit.i
  %is_detached.i = getelementptr inbounds i8, ptr %3, i64 9
  %6 = load i8, ptr %is_detached.i, align 1
  %7 = and i8 %6, 1
  %tobool6.i = icmp ne i8 %7, 0
  br label %_ZNK4node10BaseObject16IsWeakOrDetachedEv.exit

_ZNK4node10BaseObject16IsWeakOrDetachedEv.exit:   ; preds = %if.end.i.i, %if.end.i, %_ZN4node10BaseObject12pointer_dataEv.exit.i, %lor.rhs.i
  %retval.0.i = phi i1 [ true, %if.end.i.i ], [ false, %if.end.i ], [ true, %_ZN4node10BaseObject12pointer_dataEv.exit.i ], [ %tobool6.i, %lor.rhs.i ]
  ret i1 %retval.0.i
}